Certificate:
    Data:
        Version: 3 (0x2)
        Serial Number: 1 (0x1)
        Signature Algorithm: sha256WithRSAEncryption
        Issuer: CN=devcert
        Validity
            Not Before: May 19 23:03:36 2021 GMT
            Not After : Aug 22 23:03:36 2023 GMT
        Subject: CN=localhost
        Subject Public Key Info:
            Public Key Algorithm: rsaEncryption
                RSA Public-Key: (2048 bit)
                Modulus:
                    00:b9:e7:80:21:04:d5:0d:d5:67:00:4b:f9:60:25:
                    08:55:af:69:78:f3:46:18:57:8e:0a:2c:ed:33:dd:
                    5d:a5:07:71:ed:5a:b3:72:f9:66:8e:0c:b4:1f:bc:
                    9e:79:86:74:02:fa:40:e9:9e:7a:be:53:2a:fa:2c:
                    1f:b6:29:b1:08:ec:7a:49:70:c3:7f:26:b7:96:a3:
                    df:f9:59:dd:bf:d6:10:3f:8f:86:34:a7:85:da:21:
                    18:b1:a5:35:41:4d:fc:e8:b3:ce:b6:52:68:c6:60:
                    6e:bb:fc:ae:9d:5a:e0:98:f9:f7:94:62:c7:8a:d6:
                    95:7b:47:5e:97:1d:d7:98:2e:78:78:00:b9:5d:b6:
                    53:fb:b7:f9:58:97:eb:44:fc:11:62:32:b9:7e:b1:
                    de:29:02:61:4e:bd:0e:47:88:0d:f7:f8:61:4d:96:
                    09:a3:e8:46:64:fe:56:fe:8a:71:f4:e4:95:2a:60:
                    cc:60:d0:4e:15:dc:41:f1:9f:65:72:56:6b:7c:b1:
                    09:dd:ce:94:c1:ff:1a:87:5f:f3:b2:dd:28:e1:9d:
                    1b:ce:ed:df:25:bd:e5:da:60:ab:18:5f:c3:b5:be:
                    41:33:e6:81:d8:7b:75:b4:94:1a:56:b3:05:6d:98:
                    d2:2c:a2:9f:1d:5b:e6:38:77:8b:1d:3b:b4:b2:7b:
                    1e:c5
                Exponent: 65537 (0x10001)
        X509v3 extensions:
            X509v3 Basic Constraints: critical
                CA:FALSE
            X509v3 Subject Key Identifier: 
                C6:53:9B:2A:BE:BA:4A:B8:C6:FE:AF:3F:E4:C3:D0:69:F3:8F:98:A3
            X509v3 Authority Key Identifier: 
                keyid:5B:01:0B:74:B6:17:88:AF:93:7A:FB:BE:B2:13:80:41:C9:4C:0B:22
                DirName:/CN=devcert
                serial:ED:76:93:AD:63:63:01:50

            X509v3 Key Usage: critical
                Digital Signature, Key Encipherment
            X509v3 Extended Key Usage: 
                TLS Web Server Authentication
            X509v3 Subject Alternative Name: 
                DNS:localhost, DNS:*.localhost
    Signature Algorithm: sha256WithRSAEncryption
         9f:87:fc:69:63:16:be:1b:f7:8c:df:6f:93:dd:31:a9:7f:7f:
         b3:c9:89:0e:e2:6b:c9:42:3b:5a:40:7f:67:29:c3:08:11:9e:
         2b:85:ee:0c:ed:93:d6:27:c2:fd:7a:be:32:b1:87:70:75:11:
         7f:ac:c0:eb:d1:39:e7:8c:3a:e4:5d:44:86:b0:1a:18:3c:38:
         cf:94:0c:ac:7d:09:c2:b7:9b:4c:ec:f2:21:3e:64:54:7b:58:
         e7:67:d1:fe:5a:32:3b:0a:3c:49:e7:5a:8e:01:14:9d:6a:c8:
         f0:47:f6:90:bc:3e:9f:20:d1:39:3d:6a:dd:3e:c3:c2:e8:0e:
         aa:2c:05:49:21:b7:4e:77:85:69:a9:a8:3e:ed:dc:77:68:b1:
         5a:14:cd:fe:09:78:c3:5f:a6:d5:6a:47:35:c2:45:45:0d:7a:
         4c:17:ab:af:d9:38:13:53:8e:54:14:2c:77:96:90:03:5a:43:
         f2:5c:76:a4:47:a8:b7:2e:66:20:7f:ad:22:4b:4c:6c:a2:f7:
         02:5d:dc:ff:e7:d1:b3:87:02:f8:9e:56:ba:23:b1:8c:f5:42:
         e2:50:4e:0e:a0:01:d1:c8:7e:32:8b:db:26:a3:7a:ce:4b:88:
         d2:63:ca:64:dc:0d:08:20:12:58:50:a2:67:84:4a:9d:fd:16:
         7e:f5:a1:d7
-----BEGIN CERTIFICATE-----
MIIDXjCCAkagAwIBAgIBATANBgkqhkiG9w0BAQsFADASMRAwDgYDVQQDDAdkZXZj
ZXJ0MB4XDTIxMDUxOTIzMDMzNloXDTIzMDgyMjIzMDMzNlowFDESMBAGA1UEAwwJ
bG9jYWxob3N0MIIBIjANBgkqhkiG9w0BAQEFAAOCAQ8AMIIBCgKCAQEAueeAIQTV
DdVnAEv5YCUIVa9pePNGGFeOCiztM91dpQdx7Vqzcvlmjgy0H7yeeYZ0AvpA6Z56
vlMq+iwftimxCOx6SXDDfya3lqPf+Vndv9YQP4+GNKeF2iEYsaU1QU386LPOtlJo
xmBuu/yunVrgmPn3lGLHitaVe0delx3XmC54eAC5XbZT+7f5WJfrRPwRYjK5frHe
KQJhTr0OR4gN9/hhTZYJo+hGZP5W/opx9OSVKmDMYNBOFdxB8Z9lclZrfLEJ3c6U
wf8ah1/zst0o4Z0bzu3fJb3l2mCrGF/Dtb5BM+aB2Ht1tJQaVrMFbZjSLKKfHVvm
OHeLHTu0snsexQIDAQABo4G8MIG5MAwGA1UdEwEB/wQCMAAwHQYDVR0OBBYEFMZT
myq+ukq4xv6vP+TD0Gnzj5ijMEIGA1UdIwQ7MDmAFFsBC3S2F4ivk3r7vrITgEHJ
TAsioRakFDASMRAwDgYDVQQDDAdkZXZjZXJ0ggkA7XaTrWNjAVAwDgYDVR0PAQH/
BAQDAgWgMBMGA1UdJQQMMAoGCCsGAQUFBwMBMCEGA1UdEQQaMBiCCWxvY2FsaG9z
dIILKi5sb2NhbGhvc3QwDQYJKoZIhvcNAQELBQADggEBAJ+H/GljFr4b94zfb5Pd
Mal/f7PJiQ7ia8lCO1pAf2cpwwgRniuF7gztk9Ynwv16vjKxh3B1EX+swOvROeeM
OuRdRIawGhg8OM+UDKx9CcK3m0zs8iE+ZFR7WOdn0f5aMjsKPEnnWo4BFJ1qyPBH
9pC8Pp8g0Tk9at0+w8LoDqosBUkht053hWmpqD7t3HdosVoUzf4JeMNfptVqRzXC
RUUNekwXq6/ZOBNTjlQULHeWkANaQ/JcdqRHqLcuZiB/rSJLTGyi9wJd3P/n0bOH
AvieVrojsYz1QuJQTg6gAdHIfjKL2yajes5LiNJjymTcDQggElhQomeESp39Fn71
odc=
-----END CERTIFICATE-----
